target datalayout = "e-m:e-p270:32:32-p271:32:32-p272:64:64-i64:64-i128:128-f80:128-n8:16:32:64-S128"
target triple = "x86_64-pc-linux-gnu"

%class.anon.35 = type { i8 }
%class.anon.37 = type { i8 }

@.str.9 = private unnamed_addr constant [131 x i8] c"generated/home/dtcxzyw/WorkSpace/Projects/compilers/llvm-opt-benchmark/bench/gromacs/gromacs/src/gromacs/gmxpreprocess/toppush.cpp\00", align 1
@.str.16 = private unnamed_addr constant [6 x i8] c"param\00", align 1
@.str.17 = private unnamed_addr constant [27 x i8] c"Must have valid parameters\00", align 1
@.str.18 = private unnamed_addr constant [9 x i8] c"param[i]\00", align 1
@"__PRETTY_FUNCTION__._ZZ12free_nbparamPP9t_nbparamiENK3$_0clEv" = private unnamed_addr constant [76 x i8] c"auto free_nbparam(t_nbparam **, int)::(anonymous class)::operator()() const\00", align 1

; Function Attrs: mustprogress uwtable
define internal void @_ZL14gmx_sfree_implIP9t_nbparamEvPKcS3_iPT_(ptr noundef %0, ptr noundef %1, i32 noundef %2, ptr noundef %3) #2 {
  %5 = alloca ptr, align 8
  %6 = alloca ptr, align 8
  %7 = alloca i32, align 4
  %8 = alloca ptr, align 8
  store ptr %0, ptr %5, align 8
  store ptr %1, ptr %6, align 8
  store i32 %2, ptr %7, align 4
  store ptr %3, ptr %8, align 8
  %9 = load ptr, ptr %5, align 8
  %10 = load ptr, ptr %6, align 8
  %11 = load i32, ptr %7, align 4
  %12 = load ptr, ptr %8, align 8
  call void @_Z9save_freePKcS0_iPv(ptr noundef %9, ptr noundef %10, i32 noundef %11, ptr noundef %12)
  ret void
}

; Function Attrs: mustprogress uwtable
define internal void @_ZL14gmx_sfree_implI9t_nbparamEvPKcS2_iPT_(ptr noundef %0, ptr noundef %1, i32 noundef %2, ptr noundef %3) #2 {
  %5 = alloca ptr, align 8
  %6 = alloca ptr, align 8
  %7 = alloca i32, align 4
  %8 = alloca ptr, align 8
  store ptr %0, ptr %5, align 8
  store ptr %1, ptr %6, align 8
  store i32 %2, ptr %7, align 4
  store ptr %3, ptr %8, align 8
  %9 = load ptr, ptr %5, align 8
  %10 = load ptr, ptr %6, align 8
  %11 = load i32, ptr %7, align 4
  %12 = load ptr, ptr %8, align 8
  call void @_Z9save_freePKcS0_iPv(ptr noundef %9, ptr noundef %10, i32 noundef %11, ptr noundef %12)
  ret void
}

; Function Attrs: mustprogress uwtable
define internal void @"_ZZ12free_nbparamPP9t_nbparamiENK3$_1clEv"(ptr noundef nonnull align 1 dereferenceable(1) %0) #2 align 2 {
  %2 = alloca ptr, align 8
  store ptr %0, ptr %2, align 8
  call void @_ZN3gmx8internal13assertHandlerEPKcS2_S2_S2_i(ptr noundef @.str.18, ptr noundef @.str.17, ptr noundef @"__PRETTY_FUNCTION__._ZZ12free_nbparamPP9t_nbparamiENK3$_0clEv", ptr noundef @.str.9, i32 noundef 269) #18
  unreachable
}

; Function Attrs: mustprogress uwtable
define internal void @"_ZZ12free_nbparamPP9t_nbparamiENK3$_0clEv"(ptr noundef nonnull align 1 dereferenceable(1) %0) #2 align 2 {
  %2 = alloca ptr, align 8
  store ptr %0, ptr %2, align 8
  call void @_ZN3gmx8internal13assertHandlerEPKcS2_S2_S2_i(ptr noundef @.str.16, ptr noundef @.str.17, ptr noundef @"__PRETTY_FUNCTION__._ZZ12free_nbparamPP9t_nbparamiENK3$_0clEv", ptr noundef @.str.9, i32 noundef 266) #18
  unreachable
}

; Function Attrs: mustprogress uwtable
define void @_Z12free_nbparamPP9t_nbparami(ptr noundef %0, i32 noundef %1) #2 {
  %3 = alloca ptr, align 8
  %4 = alloca i32, align 4
  %5 = alloca i32, align 4
  %6 = alloca %class.anon.35, align 1
  %7 = alloca %class.anon.37, align 1
  store ptr %0, ptr %3, align 8
  store i32 %1, ptr %4, align 4
  %8 = load ptr, ptr %3, align 8
  %9 = icmp ne ptr %8, null
  br i1 %9, label %10, label %11

10:                                               ; preds = %2
  br label %12

11:                                               ; preds = %2
  call void @"_ZZ12free_nbparamPP9t_nbparamiENK3$_0clEv"(ptr noundef nonnull align 1 dereferenceable(1) %6)
  br label %12

12:                                               ; preds = %11, %10
  store i32 0, ptr %5, align 4
  br label %13

13:                                               ; preds = %32, %12
  %14 = load i32, ptr %5, align 4
  %15 = load i32, ptr %4, align 4
  %16 = icmp slt i32 %14, %15
  br i1 %16, label %17, label %35

17:                                               ; preds = %13
  %18 = load ptr, ptr %3, align 8
  %19 = load i32, ptr %5, align 4
  %20 = sext i32 %19 to i64
  %21 = getelementptr inbounds ptr, ptr %18, i64 %20
  %22 = load ptr, ptr %21, align 8
  %23 = icmp ne ptr %22, null
  br i1 %23, label %24, label %25

24:                                               ; preds = %17
  br label %26

25:                                               ; preds = %17
  call void @"_ZZ12free_nbparamPP9t_nbparamiENK3$_1clEv"(ptr noundef nonnull align 1 dereferenceable(1) %7)
  br label %26

26:                                               ; preds = %25, %24
  %27 = load ptr, ptr %3, align 8
  %28 = load i32, ptr %5, align 4
  %29 = sext i32 %28 to i64
  %30 = getelementptr inbounds ptr, ptr %27, i64 %29
  %31 = load ptr, ptr %30, align 8
  call void @_ZL14gmx_sfree_implI9t_nbparamEvPKcS2_iPT_(ptr noundef @.str.18, ptr noundef @.str.9, i32 noundef 270, ptr noundef %31)
  br label %32

32:                                               ; preds = %26
  %33 = load i32, ptr %5, align 4
  %34 = add nsw i32 %33, 1
  store i32 %34, ptr %5, align 4
  br label %13, !llvm.loop !22

35:                                               ; preds = %13
  %36 = load ptr, ptr %3, align 8
  call void @_ZL14gmx_sfree_implIP9t_nbparamEvPKcS3_iPT_(ptr noundef @.str.16, ptr noundef @.str.9, i32 noundef 272, ptr noundef %36)
  ret void
}