; Function Attrs: mustprogress uwtable
define void @_Z12free_nbparamPP9t_nbparami(ptr noundef %0, i32 noundef %1) local_unnamed_addr #1 {
  %.not = icmp eq ptr %0, null
  br i1 %.not, label %4, label %.preheader

.preheader:                                       ; preds = %2
  %3 = icmp sgt i32 %1, 0
  br i1 %3, label %.lr.ph.preheader, label %._crit_edge

.lr.ph.preheader:                                 ; preds = %.preheader
  %wide.trip.count = zext nneg i32 %1 to i64
  br label %.lr.ph

4:                                                ; preds = %2
  tail call void @_ZN3gmx8internal13assertHandlerEPKcS2_S2_S2_i(ptr noundef nonnull @.str.16, ptr noundef nonnull @.str.17, ptr noundef nonnull @"__PRETTY_FUNCTION__._ZZ12free_nbparamPP9t_nbparamiENK3$_0clEv", ptr noundef nonnull @.str.9, i32 noundef 266) #24
  unreachable

.lr.ph:                                           ; preds = %.lr.ph.preheader, %8
  %indvars.iv = phi i64 [ 0, %.lr.ph.preheader ], [ %indvars.iv.next, %8 ]
  %5 = getelementptr inbounds ptr, ptr %0, i64 %indvars.iv
  %6 = load ptr, ptr %5, align 8
  %.not8 = icmp eq ptr %6, null
  br i1 %.not8, label %7, label %8

7:                                                ; preds = %.lr.ph
  tail call void @_ZN3gmx8internal13assertHandlerEPKcS2_S2_S2_i(ptr noundef nonnull @.str.18, ptr noundef nonnull @.str.17, ptr noundef nonnull @"__PRETTY_FUNCTION__._ZZ12free_nbparamPP9t_nbparamiENK3$_0clEv", ptr noundef nonnull @.str.9, i32 noundef 269) #24
  unreachable

8:                                                ; preds = %.lr.ph
  tail call void @_Z9save_freePKcS0_iPv(ptr noundef nonnull @.str.18, ptr noundef nonnull @.str.9, i32 noundef 270, ptr noundef nonnull %6)
  %indvars.iv.next = add nuw nsw i64 %indvars.iv, 1
  %exitcond.not = icmp eq i64 %indvars.iv.next, %wide.trip.count
  br i1 %exitcond.not, label %._crit_edge, label %.lr.ph, !llvm.loop !44

._crit_edge:                                      ; preds = %8, %.preheader
  tail call void @_Z9save_freePKcS0_iPv(ptr noundef nonnull @.str.16, ptr noundef nonnull @.str.9, i32 noundef 272, ptr noundef nonnull %0)
  ret void
}